target datalayout = "e-m:e-p270:32:32-p271:32:32-p272:64:64-i64:64-i128:128-f80:128-n8:16:32:64-S128"
target triple = "x86_64-pc-linux-gnu"

%struct.AVFilterContext = type { ptr, ptr, ptr, ptr, ptr, i32, ptr, ptr, i32, ptr, ptr, i32, i32, ptr, ptr, ptr, ptr, i32, ptr, i32, i32 }
%struct.YAEPContext = type { ptr, i32, i32, i32, i32, [4 x i32], [4 x i32], i32, ptr, ptr, i32, ptr, ptr }
%struct.ThreadData = type { i32, i32, i32, i32, ptr, ptr }

; Function Attrs: nounwind uwtable
define internal i32 @filter_slice_byte(ptr noundef %0, ptr noundef %1, i32 noundef %2, i32 noundef %3) #2 {
  %5 = alloca ptr, align 8
  %6 = alloca ptr, align 8
  %7 = alloca i32, align 4
  %8 = alloca i32, align 4
  %9 = alloca ptr, align 8
  %10 = alloca ptr, align 8
  %11 = alloca i32, align 4
  %12 = alloca i32, align 4
  %13 = alloca i32, align 4
  %14 = alloca i32, align 4
  %15 = alloca i32, align 4
  %16 = alloca i32, align 4
  %17 = alloca i32, align 4
  %18 = alloca ptr, align 8
  %19 = alloca ptr, align 8
  %20 = alloca ptr, align 8
  %21 = alloca ptr, align 8
  %22 = alloca i32, align 4
  %23 = alloca i32, align 4
  %24 = alloca i32, align 4
  %25 = alloca i32, align 4
  %26 = alloca i32, align 4
  %27 = alloca i32, align 4
  %28 = alloca i32, align 4
  %29 = alloca i32, align 4
  %30 = alloca i32, align 4
  %31 = alloca i32, align 4
  %32 = alloca i64, align 8
  %33 = alloca i64, align 8
  %34 = alloca i64, align 8
  %35 = alloca i64, align 8
  store ptr %0, ptr %5, align 8, !tbaa !4
  store ptr %1, ptr %6, align 8, !tbaa !70
  store i32 %2, ptr %7, align 4, !tbaa !37
  store i32 %3, ptr %8, align 4, !tbaa !37
  call void @llvm.lifetime.start.p0(i64 8, ptr %9) #6
  %36 = load ptr, ptr %6, align 8, !tbaa !70
  store ptr %36, ptr %9, align 8, !tbaa !71
  call void @llvm.lifetime.start.p0(i64 8, ptr %10) #6
  %37 = load ptr, ptr %5, align 8, !tbaa !4
  %38 = getelementptr inbounds nuw %struct.AVFilterContext, ptr %37, i32 0, i32 9
  %39 = load ptr, ptr %38, align 8, !tbaa !9
  store ptr %39, ptr %10, align 8, !tbaa !22
  call void @llvm.lifetime.start.p0(i64 4, ptr %11) #6
  %40 = load ptr, ptr %9, align 8, !tbaa !71
  %41 = getelementptr inbounds nuw %struct.ThreadData, ptr %40, i32 0, i32 0
  %42 = load i32, ptr %41, align 8, !tbaa !47
  store i32 %42, ptr %11, align 4, !tbaa !37
  call void @llvm.lifetime.start.p0(i64 4, ptr %12) #6
  %43 = load ptr, ptr %9, align 8, !tbaa !71
  %44 = getelementptr inbounds nuw %struct.ThreadData, ptr %43, i32 0, i32 1
  %45 = load i32, ptr %44, align 4, !tbaa !49
  store i32 %45, ptr %12, align 4, !tbaa !37
  call void @llvm.lifetime.start.p0(i64 4, ptr %13) #6
  %46 = load ptr, ptr %9, align 8, !tbaa !71
  %47 = getelementptr inbounds nuw %struct.ThreadData, ptr %46, i32 0, i32 2
  %48 = load i32, ptr %47, align 8, !tbaa !51
  %49 = sext i32 %48 to i64
  %50 = udiv i64 %49, 1
  %51 = trunc i64 %50 to i32
  store i32 %51, ptr %13, align 4, !tbaa !37
  call void @llvm.lifetime.start.p0(i64 4, ptr %14) #6
  %52 = load ptr, ptr %9, align 8, !tbaa !71
  %53 = getelementptr inbounds nuw %struct.ThreadData, ptr %52, i32 0, i32 3
  %54 = load i32, ptr %53, align 4, !tbaa !54
  %55 = sext i32 %54 to i64
  %56 = udiv i64 %55, 1
  %57 = trunc i64 %56 to i32
  store i32 %57, ptr %14, align 4, !tbaa !37
  call void @llvm.lifetime.start.p0(i64 4, ptr %15) #6
  %58 = load ptr, ptr %10, align 8, !tbaa !22
  %59 = getelementptr inbounds nuw %struct.YAEPContext, ptr %58, i32 0, i32 10
  %60 = load i32, ptr %59, align 8, !tbaa !67
  store i32 %60, ptr %15, align 4, !tbaa !37
  call void @llvm.lifetime.start.p0(i64 4, ptr %16) #6
  %61 = load ptr, ptr %10, align 8, !tbaa !22
  %62 = getelementptr inbounds nuw %struct.YAEPContext, ptr %61, i32 0, i32 3
  %63 = load i32, ptr %62, align 8, !tbaa !80
  store i32 %63, ptr %16, align 4, !tbaa !37
  call void @llvm.lifetime.start.p0(i64 4, ptr %17) #6
  %64 = load ptr, ptr %10, align 8, !tbaa !22
  %65 = getelementptr inbounds nuw %struct.YAEPContext, ptr %64, i32 0, i32 2
  %66 = load i32, ptr %65, align 4, !tbaa !43
  store i32 %66, ptr %17, align 4, !tbaa !37
  call void @llvm.lifetime.start.p0(i64 8, ptr %18) #6
  %67 = load ptr, ptr %10, align 8, !tbaa !22
  %68 = getelementptr inbounds nuw %struct.YAEPContext, ptr %67, i32 0, i32 8
  %69 = load ptr, ptr %68, align 8, !tbaa !68
  store ptr %69, ptr %18, align 8, !tbaa !73
  call void @llvm.lifetime.start.p0(i64 8, ptr %19) #6
  %70 = load ptr, ptr %10, align 8, !tbaa !22
  %71 = getelementptr inbounds nuw %struct.YAEPContext, ptr %70, i32 0, i32 9
  %72 = load ptr, ptr %71, align 8, !tbaa !69
  store ptr %72, ptr %19, align 8, !tbaa !73
  call void @llvm.lifetime.start.p0(i64 8, ptr %20) #6
  %73 = load ptr, ptr %9, align 8, !tbaa !71
  %74 = getelementptr inbounds nuw %struct.ThreadData, ptr %73, i32 0, i32 4
  %75 = load ptr, ptr %74, align 8, !tbaa !50
  store ptr %75, ptr %20, align 8, !tbaa !45
  call void @llvm.lifetime.start.p0(i64 8, ptr %21) #6
  %76 = load ptr, ptr %9, align 8, !tbaa !71
  %77 = getelementptr inbounds nuw %struct.ThreadData, ptr %76, i32 0, i32 5
  %78 = load ptr, ptr %77, align 8, !tbaa !53
  store ptr %78, ptr %21, align 8, !tbaa !45
  call void @llvm.lifetime.start.p0(i64 4, ptr %22) #6
  %79 = load i32, ptr %12, align 4, !tbaa !37
  %80 = load i32, ptr %7, align 4, !tbaa !37
  %81 = mul nsw i32 %79, %80
  %82 = load i32, ptr %8, align 4, !tbaa !37
  %83 = sdiv i32 %81, %82
  store i32 %83, ptr %22, align 4, !tbaa !37
  call void @llvm.lifetime.start.p0(i64 4, ptr %23) #6
  %84 = load i32, ptr %12, align 4, !tbaa !37
  %85 = load i32, ptr %7, align 4, !tbaa !37
  %86 = add nsw i32 %85, 1
  %87 = mul nsw i32 %84, %86
  %88 = load i32, ptr %8, align 4, !tbaa !37
  %89 = sdiv i32 %87, %88
  store i32 %89, ptr %23, align 4, !tbaa !37
  call void @llvm.lifetime.start.p0(i64 4, ptr %24) #6
  call void @llvm.lifetime.start.p0(i64 4, ptr %25) #6
  call void @llvm.lifetime.start.p0(i64 4, ptr %26) #6
  call void @llvm.lifetime.start.p0(i64 4, ptr %27) #6
  call void @llvm.lifetime.start.p0(i64 4, ptr %28) #6
  call void @llvm.lifetime.start.p0(i64 4, ptr %29) #6
  call void @llvm.lifetime.start.p0(i64 4, ptr %30) #6
  call void @llvm.lifetime.start.p0(i64 4, ptr %31) #6
  call void @llvm.lifetime.start.p0(i64 8, ptr %32) #6
  call void @llvm.lifetime.start.p0(i64 8, ptr %33) #6
  call void @llvm.lifetime.start.p0(i64 8, ptr %34) #6
  call void @llvm.lifetime.start.p0(i64 8, ptr %35) #6
  %90 = load i32, ptr %22, align 4, !tbaa !37
  store i32 %90, ptr %25, align 4, !tbaa !37
  br label %91

91:                                               ; preds = %289, %4
  %92 = load i32, ptr %25, align 4, !tbaa !37
  %93 = load i32, ptr %23, align 4, !tbaa !37
  %94 = icmp slt i32 %92, %93
  br i1 %94, label %95, label %292

95:                                               ; preds = %91
  %96 = load i32, ptr %25, align 4, !tbaa !37
  %97 = load i32, ptr %17, align 4, !tbaa !37
  %98 = sub nsw i32 %96, %97
  %99 = icmp slt i32 %98, 0
  br i1 %99, label %100, label %101

100:                                              ; preds = %95
  br label %105

101:                                              ; preds = %95
  %102 = load i32, ptr %25, align 4, !tbaa !37
  %103 = load i32, ptr %17, align 4, !tbaa !37
  %104 = sub nsw i32 %102, %103
  br label %105

105:                                              ; preds = %101, %100
  %106 = phi i32 [ 0, %100 ], [ %104, %101 ]
  store i32 %106, ptr %28, align 4, !tbaa !37
  %107 = load i32, ptr %25, align 4, !tbaa !37
  %108 = load i32, ptr %17, align 4, !tbaa !37
  %109 = add nsw i32 %107, %108
  %110 = add nsw i32 %109, 1
  %111 = load i32, ptr %12, align 4, !tbaa !37
  %112 = icmp sgt i32 %110, %111
  br i1 %112, label %113, label %115

113:                                              ; preds = %105
  %114 = load i32, ptr %12, align 4, !tbaa !37
  br label %120

115:                                              ; preds = %105
  %116 = load i32, ptr %25, align 4, !tbaa !37
  %117 = load i32, ptr %17, align 4, !tbaa !37
  %118 = add nsw i32 %116, %117
  %119 = add nsw i32 %118, 1
  br label %120

120:                                              ; preds = %115, %113
  %121 = phi i32 [ %114, %113 ], [ %119, %115 ]
  store i32 %121, ptr %29, align 4, !tbaa !37
  %122 = load i32, ptr %29, align 4, !tbaa !37
  %123 = load i32, ptr %28, align 4, !tbaa !37
  %124 = sub nsw i32 %122, %123
  store i32 %124, ptr %30, align 4, !tbaa !37
  store i32 0, ptr %24, align 4, !tbaa !37
  br label %125

125:                                              ; preds = %285, %120
  %126 = load i32, ptr %24, align 4, !tbaa !37
  %127 = load i32, ptr %11, align 4, !tbaa !37
  %128 = icmp slt i32 %126, %127
  br i1 %128, label %129, label %288

129:                                              ; preds = %125
  %130 = load i32, ptr %24, align 4, !tbaa !37
  %131 = load i32, ptr %17, align 4, !tbaa !37
  %132 = sub nsw i32 %130, %131
  %133 = icmp slt i32 %132, 0
  br i1 %133, label %134, label %135

134:                                              ; preds = %129
  br label %139

135:                                              ; preds = %129
  %136 = load i32, ptr %24, align 4, !tbaa !37
  %137 = load i32, ptr %17, align 4, !tbaa !37
  %138 = sub nsw i32 %136, %137
  br label %139

139:                                              ; preds = %135, %134
  %140 = phi i32 [ 0, %134 ], [ %138, %135 ]
  store i32 %140, ptr %26, align 4, !tbaa !37
  %141 = load i32, ptr %24, align 4, !tbaa !37
  %142 = load i32, ptr %17, align 4, !tbaa !37
  %143 = add nsw i32 %141, %142
  %144 = add nsw i32 %143, 1
  %145 = load i32, ptr %11, align 4, !tbaa !37
  %146 = icmp sgt i32 %144, %145
  br i1 %146, label %147, label %149

147:                                              ; preds = %139
  %148 = load i32, ptr %11, align 4, !tbaa !37
  br label %154

149:                                              ; preds = %139
  %150 = load i32, ptr %24, align 4, !tbaa !37
  %151 = load i32, ptr %17, align 4, !tbaa !37
  %152 = add nsw i32 %150, %151
  %153 = add nsw i32 %152, 1
  br label %154

154:                                              ; preds = %149, %147
  %155 = phi i32 [ %148, %147 ], [ %153, %149 ]
  store i32 %155, ptr %27, align 4, !tbaa !37
  %156 = load i32, ptr %30, align 4, !tbaa !37
  %157 = load i32, ptr %27, align 4, !tbaa !37
  %158 = load i32, ptr %26, align 4, !tbaa !37
  %159 = sub nsw i32 %157, %158
  %160 = mul nsw i32 %156, %159
  store i32 %160, ptr %31, align 4, !tbaa !37
  %161 = load ptr, ptr %18, align 8, !tbaa !73
  %162 = load i32, ptr %29, align 4, !tbaa !37
  %163 = load i32, ptr %15, align 4, !tbaa !37
  %164 = mul nsw i32 %162, %163
  %165 = load i32, ptr %27, align 4, !tbaa !37
  %166 = add nsw i32 %164, %165
  %167 = sext i32 %166 to i64
  %168 = getelementptr inbounds i64, ptr %161, i64 %167
  %169 = load i64, ptr %168, align 8, !tbaa !74
  %170 = load ptr, ptr %18, align 8, !tbaa !73
  %171 = load i32, ptr %29, align 4, !tbaa !37
  %172 = load i32, ptr %15, align 4, !tbaa !37
  %173 = mul nsw i32 %171, %172
  %174 = load i32, ptr %26, align 4, !tbaa !37
  %175 = add nsw i32 %173, %174
  %176 = sext i32 %175 to i64
  %177 = getelementptr inbounds i64, ptr %170, i64 %176
  %178 = load i64, ptr %177, align 8, !tbaa !74
  %179 = sub i64 %169, %178
  %180 = load ptr, ptr %18, align 8, !tbaa !73
  %181 = load i32, ptr %28, align 4, !tbaa !37
  %182 = load i32, ptr %15, align 4, !tbaa !37
  %183 = mul nsw i32 %181, %182
  %184 = load i32, ptr %27, align 4, !tbaa !37
  %185 = add nsw i32 %183, %184
  %186 = sext i32 %185 to i64
  %187 = getelementptr inbounds i64, ptr %180, i64 %186
  %188 = load i64, ptr %187, align 8, !tbaa !74
  %189 = sub i64 %179, %188
  %190 = load ptr, ptr %18, align 8, !tbaa !73
  %191 = load i32, ptr %28, align 4, !tbaa !37
  %192 = load i32, ptr %15, align 4, !tbaa !37
  %193 = mul nsw i32 %191, %192
  %194 = load i32, ptr %26, align 4, !tbaa !37
  %195 = add nsw i32 %193, %194
  %196 = sext i32 %195 to i64
  %197 = getelementptr inbounds i64, ptr %190, i64 %196
  %198 = load i64, ptr %197, align 8, !tbaa !74
  %199 = add i64 %189, %198
  store i64 %199, ptr %32, align 8, !tbaa !74
  %200 = load ptr, ptr %19, align 8, !tbaa !73
  %201 = load i32, ptr %29, align 4, !tbaa !37
  %202 = load i32, ptr %15, align 4, !tbaa !37
  %203 = mul nsw i32 %201, %202
  %204 = load i32, ptr %27, align 4, !tbaa !37
  %205 = add nsw i32 %203, %204
  %206 = sext i32 %205 to i64
  %207 = getelementptr inbounds i64, ptr %200, i64 %206
  %208 = load i64, ptr %207, align 8, !tbaa !74
  %209 = load ptr, ptr %19, align 8, !tbaa !73
  %210 = load i32, ptr %29, align 4, !tbaa !37
  %211 = load i32, ptr %15, align 4, !tbaa !37
  %212 = mul nsw i32 %210, %211
  %213 = load i32, ptr %26, align 4, !tbaa !37
  %214 = add nsw i32 %212, %213
  %215 = sext i32 %214 to i64
  %216 = getelementptr inbounds i64, ptr %209, i64 %215
  %217 = load i64, ptr %216, align 8, !tbaa !74
  %218 = sub i64 %208, %217
  %219 = load ptr, ptr %19, align 8, !tbaa !73
  %220 = load i32, ptr %28, align 4, !tbaa !37
  %221 = load i32, ptr %15, align 4, !tbaa !37
  %222 = mul nsw i32 %220, %221
  %223 = load i32, ptr %27, align 4, !tbaa !37
  %224 = add nsw i32 %222, %223
  %225 = sext i32 %224 to i64
  %226 = getelementptr inbounds i64, ptr %219, i64 %225
  %227 = load i64, ptr %226, align 8, !tbaa !74
  %228 = sub i64 %218, %227
  %229 = load ptr, ptr %19, align 8, !tbaa !73
  %230 = load i32, ptr %28, align 4, !tbaa !37
  %231 = load i32, ptr %15, align 4, !tbaa !37
  %232 = mul nsw i32 %230, %231
  %233 = load i32, ptr %26, align 4, !tbaa !37
  %234 = add nsw i32 %232, %233
  %235 = sext i32 %234 to i64
  %236 = getelementptr inbounds i64, ptr %229, i64 %235
  %237 = load i64, ptr %236, align 8, !tbaa !74
  %238 = add i64 %228, %237
  store i64 %238, ptr %33, align 8, !tbaa !74
  %239 = load i64, ptr %32, align 8, !tbaa !74
  %240 = load i32, ptr %31, align 4, !tbaa !37
  %241 = sext i32 %240 to i64
  %242 = udiv i64 %239, %241
  store i64 %242, ptr %34, align 8, !tbaa !74
  %243 = load i64, ptr %33, align 8, !tbaa !74
  %244 = load i64, ptr %32, align 8, !tbaa !74
  %245 = load i64, ptr %32, align 8, !tbaa !74
  %246 = mul i64 %244, %245
  %247 = load i32, ptr %31, align 4, !tbaa !37
  %248 = sext i32 %247 to i64
  %249 = udiv i64 %246, %248
  %250 = sub i64 %243, %249
  %251 = load i32, ptr %31, align 4, !tbaa !37
  %252 = sext i32 %251 to i64
  %253 = udiv i64 %250, %252
  store i64 %253, ptr %35, align 8, !tbaa !74
  %254 = load i32, ptr %16, align 4, !tbaa !37
  %255 = sext i32 %254 to i64
  %256 = load i64, ptr %34, align 8, !tbaa !74
  %257 = mul i64 %255, %256
  %258 = load i64, ptr %35, align 8, !tbaa !74
  %259 = load ptr, ptr %20, align 8, !tbaa !45
  %260 = load i32, ptr %25, align 4, !tbaa !37
  %261 = load i32, ptr %13, align 4, !tbaa !37
  %262 = mul nsw i32 %260, %261
  %263 = load i32, ptr %24, align 4, !tbaa !37
  %264 = add nsw i32 %262, %263
  %265 = sext i32 %264 to i64
  %266 = getelementptr inbounds i8, ptr %259, i64 %265
  %267 = load i8, ptr %266, align 1, !tbaa !77
  %268 = zext i8 %267 to i64
  %269 = mul i64 %258, %268
  %270 = add i64 %257, %269
  %271 = load i32, ptr %16, align 4, !tbaa !37
  %272 = sext i32 %271 to i64
  %273 = load i64, ptr %35, align 8, !tbaa !74
  %274 = add i64 %272, %273
  %275 = udiv i64 %270, %274
  %276 = trunc i64 %275 to i8
  %277 = load ptr, ptr %21, align 8, !tbaa !45
  %278 = load i32, ptr %25, align 4, !tbaa !37
  %279 = load i32, ptr %14, align 4, !tbaa !37
  %280 = mul nsw i32 %278, %279
  %281 = load i32, ptr %24, align 4, !tbaa !37
  %282 = add nsw i32 %280, %281
  %283 = sext i32 %282 to i64
  %284 = getelementptr inbounds i8, ptr %277, i64 %283
  store i8 %276, ptr %284, align 1, !tbaa !77
  br label %285

285:                                              ; preds = %154
  %286 = load i32, ptr %24, align 4, !tbaa !37
  %287 = add nsw i32 %286, 1
  store i32 %287, ptr %24, align 4, !tbaa !37
  br label %125, !llvm.loop !81

288:                                              ; preds = %125
  br label %289

289:                                              ; preds = %288
  %290 = load i32, ptr %25, align 4, !tbaa !37
  %291 = add nsw i32 %290, 1
  store i32 %291, ptr %25, align 4, !tbaa !37
  br label %91, !llvm.loop !82

292:                                              ; preds = %91
  call void @llvm.lifetime.end.p0(i64 8, ptr %35) #6
  call void @llvm.lifetime.end.p0(i64 8, ptr %34) #6
  call void @llvm.lifetime.end.p0(i64 8, ptr %33) #6
  call void @llvm.lifetime.end.p0(i64 8, ptr %32) #6
  call void @llvm.lifetime.end.p0(i64 4, ptr %31) #6
  call void @llvm.lifetime.end.p0(i64 4, ptr %30) #6
  call void @llvm.lifetime.end.p0(i64 4, ptr %29) #6
  call void @llvm.lifetime.end.p0(i64 4, ptr %28) #6
  call void @llvm.lifetime.end.p0(i64 4, ptr %27) #6
  call void @llvm.lifetime.end.p0(i64 4, ptr %26) #6
  call void @llvm.lifetime.end.p0(i64 4, ptr %25) #6
  call void @llvm.lifetime.end.p0(i64 4, ptr %24) #6
  call void @llvm.lifetime.end.p0(i64 4, ptr %23) #6
  call void @llvm.lifetime.end.p0(i64 4, ptr %22) #6
  call void @llvm.lifetime.end.p0(i64 8, ptr %21) #6
  call void @llvm.lifetime.end.p0(i64 8, ptr %20) #6
  call void @llvm.lifetime.end.p0(i64 8, ptr %19) #6
  call void @llvm.lifetime.end.p0(i64 8, ptr %18) #6
  call void @llvm.lifetime.end.p0(i64 4, ptr %17) #6
  call void @llvm.lifetime.end.p0(i64 4, ptr %16) #6
  call void @llvm.lifetime.end.p0(i64 4, ptr %15) #6
  call void @llvm.lifetime.end.p0(i64 4, ptr %14) #6
  call void @llvm.lifetime.end.p0(i64 4, ptr %13) #6
  call void @llvm.lifetime.end.p0(i64 4, ptr %12) #6
  call void @llvm.lifetime.end.p0(i64 4, ptr %11) #6
  call void @llvm.lifetime.end.p0(i64 8, ptr %10) #6
  call void @llvm.lifetime.end.p0(i64 8, ptr %9) #6
  ret i32 0
}