; Function Attrs: nofree norecurse nosync nounwind memory(readwrite, inaccessiblemem: none) uwtable
define internal noundef i32 @filter_slice_byte(ptr noundef readonly captures(none) %0, ptr noundef readonly captures(none) %1, i32 noundef %2, i32 noundef %3) #5 {
  %5 = getelementptr inbounds nuw i8, ptr %0, i64 72
  %6 = load ptr, ptr %5, align 8, !tbaa !4
  %7 = load i32, ptr %1, align 8, !tbaa !44
  %8 = getelementptr inbounds nuw i8, ptr %1, i64 4
  %9 = load i32, ptr %8, align 4, !tbaa !46
  %10 = getelementptr inbounds nuw i8, ptr %1, i64 8
  %11 = load i32, ptr %10, align 8, !tbaa !48
  %12 = getelementptr inbounds nuw i8, ptr %1, i64 12
  %13 = load i32, ptr %12, align 4, !tbaa !51
  %14 = getelementptr inbounds nuw i8, ptr %6, i64 80
  %15 = load i32, ptr %14, align 8, !tbaa !62
  %16 = getelementptr inbounds nuw i8, ptr %6, i64 12
  %17 = load i32, ptr %16, align 4, !tbaa !39
  %18 = getelementptr inbounds nuw i8, ptr %6, i64 64
  %19 = load ptr, ptr %18, align 8, !tbaa !63
  %20 = getelementptr inbounds nuw i8, ptr %6, i64 72
  %21 = load ptr, ptr %20, align 8, !tbaa !64
  %22 = getelementptr inbounds nuw i8, ptr %1, i64 16
  %23 = load ptr, ptr %22, align 8, !tbaa !47
  %24 = getelementptr inbounds nuw i8, ptr %1, i64 24
  %25 = load ptr, ptr %24, align 8, !tbaa !50
  %26 = mul nsw i32 %9, %2
  %27 = sdiv i32 %26, %3
  %28 = add nsw i32 %2, 1
  %29 = mul nsw i32 %9, %28
  %30 = sdiv i32 %29, %3
  %invariant.op116 = add i32 %17, 1
  %31 = icmp slt i32 %27, %30
  br i1 %31, label %.lr.ph120, label %._crit_edge121

.lr.ph120:                                        ; preds = %4
  %32 = getelementptr inbounds nuw i8, ptr %6, i64 16
  %33 = load i32, ptr %32, align 8, !tbaa !71
  %34 = icmp sgt i32 %7, 0
  %35 = sext i32 %33 to i64
  br i1 %34, label %.lr.ph.us.preheader, label %._crit_edge121

.lr.ph.us.preheader:                              ; preds = %.lr.ph120
  %36 = sext i32 %17 to i64
  %37 = zext nneg i32 %7 to i64
  %38 = sext i32 %27 to i64
  %39 = sext i32 %9 to i64
  %40 = sext i32 %11 to i64
  %41 = sext i32 %13 to i64
  %wide.trip.count127 = sext i32 %30 to i64
  %invariant.op131 = sub nsw i64 %39, %36
  %wide.trip.count = zext nneg i32 %7 to i64
  %invariant.op = sub nsw i64 %37, %36
  br label %.lr.ph.us

.lr.ph.us:                                        ; preds = %.lr.ph.us.preheader, %._crit_edge.us
  %indvars.iv124 = phi i64 [ %38, %.lr.ph.us.preheader ], [ %indvars.iv.next125, %._crit_edge.us ]
  %42 = trunc i64 %indvars.iv124 to i32
  %43 = sub i32 %42, %17
  %44 = tail call i32 @llvm.smax.i32(i32 %43, i32 0)
  %.not.us = icmp slt i64 %indvars.iv124, %invariant.op131
  %45 = trunc nsw i64 %indvars.iv124 to i32
  %.reass117.us = add i32 %invariant.op116, %45
  %46 = select i1 %.not.us, i32 %.reass117.us, i32 %9
  %47 = sub nsw i32 %46, %44
  %48 = mul nsw i32 %46, %15
  %49 = mul nsw i32 %44, %15
  %50 = mul nsw i64 %indvars.iv124, %40
  %51 = mul nsw i64 %indvars.iv124, %41
  %invariant.gep = getelementptr i8, ptr %23, i64 %50
  %invariant.gep129 = getelementptr i8, ptr %25, i64 %51
  br label %52

52:                                               ; preds = %.lr.ph.us, %52
  %indvars.iv = phi i64 [ 0, %.lr.ph.us ], [ %indvars.iv.next, %52 ]
  %53 = trunc i64 %indvars.iv to i32
  %54 = sub i32 %53, %17
  %55 = tail call i32 @llvm.smax.i32(i32 %54, i32 0)
  %.not107.us = icmp slt i64 %indvars.iv, %invariant.op
  %56 = trunc nuw nsw i64 %indvars.iv to i32
  %.reass.us = add i32 %invariant.op116, %56
  %57 = select i1 %.not107.us, i32 %.reass.us, i32 %7
  %58 = sub nsw i32 %57, %55
  %59 = mul nsw i32 %58, %47
  %60 = add nsw i32 %57, %48
  %61 = sext i32 %60 to i64
  %62 = getelementptr inbounds i64, ptr %19, i64 %61
  %63 = load i64, ptr %62, align 8, !tbaa !65
  %64 = add nsw i32 %55, %48
  %65 = sext i32 %64 to i64
  %66 = getelementptr inbounds i64, ptr %19, i64 %65
  %67 = load i64, ptr %66, align 8, !tbaa !65
  %68 = add nsw i32 %57, %49
  %69 = sext i32 %68 to i64
  %70 = getelementptr inbounds i64, ptr %19, i64 %69
  %71 = load i64, ptr %70, align 8, !tbaa !65
  %72 = add nsw i32 %55, %49
  %73 = sext i32 %72 to i64
  %74 = getelementptr inbounds i64, ptr %19, i64 %73
  %75 = load i64, ptr %74, align 8, !tbaa !65
  %76 = add i64 %67, %71
  %77 = sub i64 %63, %76
  %78 = add i64 %77, %75
  %79 = getelementptr inbounds i64, ptr %21, i64 %61
  %80 = load i64, ptr %79, align 8, !tbaa !65
  %81 = getelementptr inbounds i64, ptr %21, i64 %65
  %82 = load i64, ptr %81, align 8, !tbaa !65
  %83 = getelementptr inbounds i64, ptr %21, i64 %69
  %84 = load i64, ptr %83, align 8, !tbaa !65
  %85 = getelementptr inbounds i64, ptr %21, i64 %73
  %86 = load i64, ptr %85, align 8, !tbaa !65
  %87 = sext i32 %59 to i64
  %88 = udiv i64 %78, %87
  %89 = mul i64 %78, %78
  %90 = udiv i64 %89, %87
  %91 = add i64 %82, %84
  %92 = add i64 %80, %86
  %93 = add i64 %91, %90
  %94 = sub i64 %92, %93
  %95 = udiv i64 %94, %87
  %96 = mul i64 %88, %35
  %gep = getelementptr i8, ptr %invariant.gep, i64 %indvars.iv
  %97 = load i8, ptr %gep, align 1, !tbaa !68
  %98 = zext i8 %97 to i64
  %99 = mul i64 %95, %98
  %100 = add i64 %99, %96
  %101 = add i64 %95, %35
  %102 = udiv i64 %100, %101
  %103 = trunc i64 %102 to i8
  %gep130 = getelementptr i8, ptr %invariant.gep129, i64 %indvars.iv
  store i8 %103, ptr %gep130, align 1, !tbaa !68
  %indvars.iv.next = add nuw nsw i64 %indvars.iv, 1
  %exitcond.not = icmp eq i64 %indvars.iv.next, %wide.trip.count
  br i1 %exitcond.not, label %._crit_edge.us, label %52, !llvm.loop !72

._crit_edge.us:                                   ; preds = %52
  %indvars.iv.next125 = add nsw i64 %indvars.iv124, 1
  %exitcond128.not = icmp eq i64 %indvars.iv.next125, %wide.trip.count127
  br i1 %exitcond128.not, label %._crit_edge121, label %.lr.ph.us, !llvm.loop !73

._crit_edge121:                                   ; preds = %._crit_edge.us, %.lr.ph120, %4
  ret i32 0
}